; Function Attrs: nofree nosync nounwind memory(read, inaccessiblemem: none) uwtable
define internal double @cbsum(ptr noundef readonly %0, double noundef %1, double noundef %2) #7 {
  %4 = getelementptr inbounds nuw i8, ptr %0, i64 1088
  %5 = load ptr, ptr %4, align 8, !tbaa !60
  %6 = getelementptr inbounds nuw i8, ptr %5, i64 8
  %7 = load ptr, ptr %6, align 8, !tbaa !20
  %.not.i = icmp eq ptr %7, null
  br i1 %.not.i, label %getpix_integrate.exit, label %8

8:                                                ; preds = %3
  %9 = getelementptr inbounds nuw i8, ptr %5, i64 108
  %10 = load i32, ptr %9, align 4, !tbaa !99
  %11 = sub nsw i32 0, %10
  %12 = getelementptr inbounds nuw i8, ptr %0, i64 1188
  %13 = load i32, ptr %12, align 4, !tbaa !65
  %14 = ashr i32 %11, %13
  %15 = sub nsw i32 0, %14
  %16 = getelementptr inbounds nuw i8, ptr %5, i64 104
  %17 = load i32, ptr %16, align 8, !tbaa !100
  %18 = sub nsw i32 0, %17
  %19 = getelementptr inbounds nuw i8, ptr %0, i64 1184
  %20 = load i32, ptr %19, align 8, !tbaa !64
  %21 = ashr i32 %18, %20
  %22 = sub nsw i32 0, %21
  %23 = sitofp i32 %21 to double
  %24 = shl nsw i32 %22, 1
  %25 = sitofp i32 %24 to double
  %26 = fcmp nsz ogt double %1, %23
  %27 = select nsz i1 %26, double %1, double %23
  %28 = fcmp nsz ogt double %27, %25
  %..i36.i = select nsz i1 %28, double %25, double %27
  %29 = tail call i64 @llvm.lrint.i64.f64(double %..i36.i)
  %30 = trunc i64 %29 to i32
  %31 = sitofp i32 %14 to double
  %32 = shl nsw i32 %15, 1
  %33 = sitofp i32 %32 to double
  %34 = fcmp nsz ogt double %2, %31
  %35 = select nsz i1 %34, double %2, double %31
  %36 = fcmp nsz ogt double %35, %33
  %..i.i = select nsz i1 %36, double %33, double %35
  %37 = tail call i64 @llvm.lrint.i64.f64(double %..i.i)
  %38 = trunc i64 %37 to i32
  %39 = tail call nsz fastcc double @getpix_integrate_internal(ptr noundef nonnull readonly %0, i32 noundef %30, i32 noundef %38, i32 noundef 1, i32 noundef %22, i32 noundef %15)
  br label %getpix_integrate.exit

getpix_integrate.exit:                            ; preds = %3, %8
  %.0.i = phi nsz double [ %39, %8 ], [ 0.000000e+00, %3 ]
  ret double %.0.i
}